; Function Attrs: mustprogress nounwind uwtable
define void @_ZN9ezMiniSATD2Ev(ptr noundef nonnull align 8 dereferenceable(376) initializes((0, 8)) %0) unnamed_addr #2 align 2 personality ptr @__gxx_personality_v0 {
  store ptr getelementptr inbounds nuw inrange(-16, 48) (i8, ptr @_ZTV9ezMiniSAT, i64 16), ptr %0, align 8, !tbaa !6
  %2 = getelementptr inbounds nuw i8, ptr %0, i64 288
  %3 = load ptr, ptr %2, align 8, !tbaa !21
  %.not = icmp eq ptr %3, null
  br i1 %.not, label %8, label %4

4:                                                ; preds = %1
  %5 = load ptr, ptr %3, align 8, !tbaa !6
  %6 = getelementptr inbounds nuw i8, ptr %5, i64 8
  %7 = load ptr, ptr %6, align 8
  tail call void %7(ptr noundef nonnull align 8 dereferenceable(1196) %3) #21
  br label %8

8:                                                ; preds = %4, %1
  %9 = getelementptr inbounds nuw i8, ptr %0, i64 328
  %10 = getelementptr inbounds nuw i8, ptr %0, i64 344
  %11 = load ptr, ptr %10, align 8, !tbaa !17
  invoke void @_ZNSt8_Rb_treeIiiSt9_IdentityIiESt4lessIiESaIiEE8_M_eraseEPSt13_Rb_tree_nodeIiE(ptr noundef nonnull align 8 dereferenceable(48) %9, ptr noundef %11)
          to label %_ZNSt3setIiSt4lessIiESaIiEED2Ev.exit unwind label %12

12:                                               ; preds = %8
  %13 = landingpad { ptr, i32 }
          catch ptr null
  %14 = extractvalue { ptr, i32 } %13, 0
  tail call void @__clang_call_terminate(ptr %14) #23
  unreachable

_ZNSt3setIiSt4lessIiESaIiEED2Ev.exit:             ; preds = %8
  %15 = getelementptr inbounds nuw i8, ptr %0, i64 296
  %16 = load ptr, ptr %15, align 8, !tbaa !64
  %.not.i.i.i = icmp eq ptr %16, null
  br i1 %.not.i.i.i, label %_ZNSt6vectorIiSaIiEED2Ev.exit, label %17

17:                                               ; preds = %_ZNSt3setIiSt4lessIiESaIiEED2Ev.exit
  %18 = getelementptr inbounds nuw i8, ptr %0, i64 312
  %19 = load ptr, ptr %18, align 8, !tbaa !65
  %20 = ptrtoint ptr %19 to i64
  %21 = ptrtoint ptr %16 to i64
  %22 = sub i64 %20, %21
  tail call void @_ZdlPvm(ptr noundef nonnull %16, i64 noundef %22) #22
  br label %_ZNSt6vectorIiSaIiEED2Ev.exit

_ZNSt6vectorIiSaIiEED2Ev.exit:                    ; preds = %_ZNSt3setIiSt4lessIiESaIiEED2Ev.exit, %17
  tail call void @_ZN5ezSATD2Ev(ptr noundef nonnull align 8 dereferenceable(284) %0) #21
  ret void
}